target datalayout = "e-m:e-p270:32:32-p271:32:32-p272:64:64-i64:64-i128:128-f80:128-n8:16:32:64-S128"
target triple = "x86_64-pc-linux-gnu"

%struct._object = type { %union.anon, ptr }
%union.anon = type { i64 }
%struct.PyVarObject = type { %struct._object, i64 }
%struct._typeobject = type { %struct.PyVarObject, ptr, i64, i64, ptr, i64, ptr, ptr, ptr, ptr, ptr, ptr, ptr, ptr, ptr, ptr, ptr, ptr, ptr, i64, ptr, ptr, ptr, ptr, i64, ptr, ptr, ptr, ptr, ptr, ptr, ptr, ptr, ptr, i64, ptr, ptr, ptr, ptr, ptr, ptr, ptr, ptr, ptr, ptr, ptr, i32, ptr, ptr, i8, i16 }
%struct.PyTupleObject = type { %struct.PyVarObject, [1 x ptr] }
%struct._ts = type { ptr, ptr, ptr, i64, %struct.anon.5, i32, i32, i32, i32, i32, i32, i32, i32, ptr, ptr, ptr, ptr, ptr, ptr, ptr, ptr, i32, ptr, i64, i64, ptr, i64, i32, ptr, ptr, ptr, i64, i64, ptr, ptr, ptr, %struct._err_stackitem, ptr, i64, ptr, ptr }
%struct.anon.5 = type { i32 }
%struct._err_stackitem = type { ptr, ptr }
%struct.anon = type { i32, i32 }

@_Py_tss_tstate = external thread_local global ptr, align 8
@.str.36 = private unnamed_addr constant [4 x i8] c"(O)\00", align 1
@.str.37 = private unnamed_addr constant [17 x i8] c"gc.get_referents\00", align 1

; Function Attrs: inlinehint nounwind uwtable
define internal i32 @_PyType_HasFeature(ptr noundef %0, i64 noundef %1) #3 {
  %3 = alloca ptr, align 8
  %4 = alloca i64, align 8
  store ptr %0, ptr %3, align 8, !tbaa !61
  store i64 %1, ptr %4, align 8, !tbaa !13
  %5 = load ptr, ptr %3, align 8, !tbaa !61
  %6 = getelementptr inbounds nuw %struct._typeobject, ptr %5, i32 0, i32 19
  %7 = load i64, ptr %6, align 8, !tbaa !64
  %8 = load i64, ptr %4, align 8, !tbaa !13
  %9 = and i64 %7, %8
  %10 = icmp ne i64 %9, 0
  %11 = zext i1 %10 to i32
  ret i32 %11
}

; Function Attrs: inlinehint nounwind uwtable
define internal i64 @Py_SIZE(ptr noundef %0) #3 {
  %2 = alloca ptr, align 8
  store ptr %0, ptr %2, align 8, !tbaa !4
  %3 = load ptr, ptr %2, align 8, !tbaa !4
  %4 = getelementptr inbounds nuw %struct.PyVarObject, ptr %3, i32 0, i32 1
  %5 = load i64, ptr %4, align 8, !tbaa !38
  ret i64 %5
}

; Function Attrs: alwaysinline nounwind uwtable
define internal i32 @_Py_IsImmortal(ptr noundef %0) #6 {
  %2 = alloca ptr, align 8
  store ptr %0, ptr %2, align 8, !tbaa !4
  %3 = load ptr, ptr %2, align 8, !tbaa !4
  %4 = getelementptr inbounds nuw %struct._object, ptr %3, i32 0, i32 0
  %5 = getelementptr inbounds nuw %struct.anon, ptr %4, i32 0, i32 0
  %6 = load i32, ptr %5, align 8, !tbaa !52
  %7 = icmp slt i32 %6, 0
  %8 = zext i1 %7 to i32
  ret i32 %8
}

; Function Attrs: inlinehint nounwind uwtable
define internal ptr @_Py_TYPE(ptr noundef %0) #3 {
  %2 = alloca ptr, align 8
  store ptr %0, ptr %2, align 8, !tbaa !4
  %3 = load ptr, ptr %2, align 8, !tbaa !4
  %4 = getelementptr inbounds nuw %struct._object, ptr %3, i32 0, i32 1
  %5 = load ptr, ptr %4, align 8, !tbaa !63
  ret ptr %5
}

; Function Attrs: inlinehint nounwind uwtable
define internal i32 @_PyObject_IS_GC(ptr noundef %0) #3 {
  %2 = alloca ptr, align 8
  %3 = alloca ptr, align 8
  store ptr %0, ptr %2, align 8, !tbaa !4
  call void @llvm.lifetime.start.p0(i64 8, ptr %3) #7
  %4 = load ptr, ptr %2, align 8, !tbaa !4
  %5 = call ptr @_Py_TYPE(ptr noundef %4)
  store ptr %5, ptr %3, align 8, !tbaa !61
  %6 = load ptr, ptr %3, align 8, !tbaa !61
  %7 = call i32 @_PyType_HasFeature(ptr noundef %6, i64 noundef 16384)
  %8 = icmp ne i32 %7, 0
  br i1 %8, label %9, label %23

9:                                                ; preds = %1
  %10 = load ptr, ptr %3, align 8, !tbaa !61
  %11 = getelementptr inbounds nuw %struct._typeobject, ptr %10, i32 0, i32 39
  %12 = load ptr, ptr %11, align 8, !tbaa !62
  %13 = icmp eq ptr %12, null
  br i1 %13, label %21, label %14

14:                                               ; preds = %9
  %15 = load ptr, ptr %3, align 8, !tbaa !61
  %16 = getelementptr inbounds nuw %struct._typeobject, ptr %15, i32 0, i32 39
  %17 = load ptr, ptr %16, align 8, !tbaa !62
  %18 = load ptr, ptr %2, align 8, !tbaa !4
  %19 = call i32 %17(ptr noundef %18)
  %20 = icmp ne i32 %19, 0
  br label %21

21:                                               ; preds = %14, %9
  %22 = phi i1 [ true, %9 ], [ %20, %14 ]
  br label %23

23:                                               ; preds = %21, %1
  %24 = phi i1 [ false, %1 ], [ %22, %21 ]
  %25 = zext i1 %24 to i32
  call void @llvm.lifetime.end.p0(i64 8, ptr %3) #7
  ret i32 %25
}

; Function Attrs: inlinehint nounwind uwtable
define internal i64 @PyTuple_GET_SIZE(ptr noundef %0) #3 {
  %2 = alloca ptr, align 8
  %3 = alloca ptr, align 8
  store ptr %0, ptr %2, align 8, !tbaa !4
  call void @llvm.lifetime.start.p0(i64 8, ptr %3) #7
  %4 = load ptr, ptr %2, align 8, !tbaa !4
  store ptr %4, ptr %3, align 8, !tbaa !35
  %5 = load ptr, ptr %3, align 8, !tbaa !35
  %6 = call i64 @Py_SIZE(ptr noundef %5)
  call void @llvm.lifetime.end.p0(i64 8, ptr %3) #7
  ret i64 %6
}

; Function Attrs: inlinehint nounwind uwtable
define internal ptr @_PyThreadState_GET() #3 {
  %1 = call align 8 ptr @llvm.threadlocal.address.p0(ptr align 8 @_Py_tss_tstate)
  %2 = load ptr, ptr %1, align 8, !tbaa !23
  ret ptr %2
}

; Function Attrs: alwaysinline nounwind uwtable
define internal void @Py_DECREF(ptr noundef %0) #6 {
  %2 = alloca ptr, align 8
  store ptr %0, ptr %2, align 8, !tbaa !4
  %3 = load ptr, ptr %2, align 8, !tbaa !4
  %4 = call i32 @_Py_IsImmortal(ptr noundef %3)
  %5 = icmp ne i32 %4, 0
  br i1 %5, label %6, label %7

6:                                                ; preds = %1
  br label %16

7:                                                ; preds = %1
  %8 = load ptr, ptr %2, align 8, !tbaa !4
  %9 = getelementptr inbounds nuw %struct._object, ptr %8, i32 0, i32 0
  %10 = getelementptr inbounds nuw %struct.anon, ptr %9, i32 0, i32 0
  %11 = load i32, ptr %10, align 8, !tbaa !52
  %12 = add i32 %11, -1
  store i32 %12, ptr %10, align 8, !tbaa !52
  %13 = icmp eq i32 %12, 0
  br i1 %13, label %14, label %16

14:                                               ; preds = %7
  %15 = load ptr, ptr %2, align 8, !tbaa !4
  call void @_Py_Dealloc(ptr noundef %15)
  br label %16

16:                                               ; preds = %6, %14, %7
  ret void
}

; Function Attrs: nounwind uwtable
define internal i32 @append_referrents(ptr noundef %0, ptr noundef %1) #0 {
  %3 = alloca i32, align 4
  %4 = alloca ptr, align 8
  %5 = alloca ptr, align 8
  %6 = alloca i64, align 8
  %7 = alloca i32, align 4
  %8 = alloca ptr, align 8
  %9 = alloca ptr, align 8
  store ptr %0, ptr %4, align 8, !tbaa !4
  store ptr %1, ptr %5, align 8, !tbaa !4
  call void @llvm.lifetime.start.p0(i64 8, ptr %6) #7
  store i64 0, ptr %6, align 8, !tbaa !13
  br label %10

10:                                               ; preds = %46, %2
  %11 = load i64, ptr %6, align 8, !tbaa !13
  %12 = load ptr, ptr %5, align 8, !tbaa !4
  %13 = call i64 @PyTuple_GET_SIZE(ptr noundef %12)
  %14 = icmp slt i64 %11, %13
  br i1 %14, label %16, label %15

15:                                               ; preds = %10
  store i32 2, ptr %7, align 4
  br label %49

16:                                               ; preds = %10
  call void @llvm.lifetime.start.p0(i64 8, ptr %8) #7
  %17 = load ptr, ptr %5, align 8, !tbaa !4
  %18 = getelementptr inbounds nuw %struct.PyTupleObject, ptr %17, i32 0, i32 1
  %19 = load i64, ptr %6, align 8, !tbaa !13
  %20 = getelementptr [1 x ptr], ptr %18, i64 0, i64 %19
  %21 = load ptr, ptr %20, align 8, !tbaa !4
  store ptr %21, ptr %8, align 8, !tbaa !4
  %22 = load ptr, ptr %8, align 8, !tbaa !4
  %23 = call i32 @_PyObject_IS_GC(ptr noundef %22)
  %24 = icmp ne i32 %23, 0
  br i1 %24, label %26, label %25

25:                                               ; preds = %16
  store i32 4, ptr %7, align 4
  br label %43

26:                                               ; preds = %16
  call void @llvm.lifetime.start.p0(i64 8, ptr %9) #7
  %27 = load ptr, ptr %8, align 8, !tbaa !4
  %28 = call ptr @_Py_TYPE(ptr noundef %27)
  %29 = getelementptr inbounds nuw %struct._typeobject, ptr %28, i32 0, i32 21
  %30 = load ptr, ptr %29, align 8, !tbaa !53
  store ptr %30, ptr %9, align 8, !tbaa !35
  %31 = load ptr, ptr %9, align 8, !tbaa !35
  %32 = icmp ne ptr %31, null
  br i1 %32, label %34, label %33

33:                                               ; preds = %26
  store i32 4, ptr %7, align 4
  br label %42

34:                                               ; preds = %26
  %35 = load ptr, ptr %9, align 8, !tbaa !35
  %36 = load ptr, ptr %8, align 8, !tbaa !4
  %37 = load ptr, ptr %4, align 8, !tbaa !4
  %38 = call i32 %35(ptr noundef %36, ptr noundef @referentsvisit, ptr noundef %37)
  %39 = icmp ne i32 %38, 0
  br i1 %39, label %40, label %41

40:                                               ; preds = %34
  store i32 -1, ptr %3, align 4
  store i32 1, ptr %7, align 4
  br label %42

41:                                               ; preds = %34
  store i32 0, ptr %7, align 4
  br label %42

42:                                               ; preds = %41, %40, %33
  call void @llvm.lifetime.end.p0(i64 8, ptr %9) #7
  br label %43

43:                                               ; preds = %42, %25
  call void @llvm.lifetime.end.p0(i64 8, ptr %8) #7
  %44 = load i32, ptr %7, align 4
  switch i32 %44, label %49 [
    i32 0, label %45
    i32 4, label %46
  ]

45:                                               ; preds = %43
  br label %46

46:                                               ; preds = %45, %43
  %47 = load i64, ptr %6, align 8, !tbaa !13
  %48 = add i64 %47, 1
  store i64 %48, ptr %6, align 8, !tbaa !13
  br label %10, !llvm.loop !60

49:                                               ; preds = %43, %15
  call void @llvm.lifetime.end.p0(i64 8, ptr %6) #7
  %50 = load i32, ptr %7, align 4
  switch i32 %50, label %54 [
    i32 2, label %51
    i32 1, label %52
  ]

51:                                               ; preds = %49
  store i32 0, ptr %3, align 4
  br label %52

52:                                               ; preds = %51, %49
  %53 = load i32, ptr %3, align 4
  ret i32 %53

54:                                               ; preds = %49
  unreachable
}

; Function Attrs: inlinehint nounwind uwtable
define internal ptr @_PyInterpreterState_GET() #3 {
  %1 = alloca ptr, align 8
  call void @llvm.lifetime.start.p0(i64 8, ptr %1) #7
  %2 = call ptr @_PyThreadState_GET()
  store ptr %2, ptr %1, align 8, !tbaa !23
  %3 = load ptr, ptr %1, align 8, !tbaa !23
  %4 = getelementptr inbounds nuw %struct._ts, ptr %3, i32 0, i32 2
  %5 = load ptr, ptr %4, align 8, !tbaa !25
  call void @llvm.lifetime.end.p0(i64 8, ptr %1) #7
  ret ptr %5
}

; Function Attrs: inlinehint nounwind uwtable
define internal void @Py_XDECREF(ptr noundef %0) #3 {
  %2 = alloca ptr, align 8
  store ptr %0, ptr %2, align 8, !tbaa !4
  %3 = load ptr, ptr %2, align 8, !tbaa !4
  %4 = icmp ne ptr %3, null
  br i1 %4, label %5, label %7

5:                                                ; preds = %1
  %6 = load ptr, ptr %2, align 8, !tbaa !4
  call void @Py_DECREF(ptr noundef %6)
  br label %7

7:                                                ; preds = %5, %1
  ret void
}

; Function Attrs: nounwind uwtable
define internal ptr @gc_get_referents_impl(ptr noundef %0, ptr noundef %1) #0 {
  %3 = alloca ptr, align 8
  %4 = alloca ptr, align 8
  %5 = alloca ptr, align 8
  %6 = alloca ptr, align 8
  %7 = alloca ptr, align 8
  %8 = alloca i32, align 4
  %9 = alloca i32, align 4
  %10 = alloca ptr, align 8
  %11 = alloca ptr, align 8
  store ptr %0, ptr %4, align 8, !tbaa !4
  store ptr %1, ptr %5, align 8, !tbaa !4
  %12 = load ptr, ptr %5, align 8, !tbaa !4
  %13 = call i32 (ptr, ptr, ...) @PySys_Audit(ptr noundef @.str.37, ptr noundef @.str.36, ptr noundef %12)
  %14 = icmp slt i32 %13, 0
  br i1 %14, label %15, label %16

15:                                               ; preds = %2
  store ptr null, ptr %3, align 8
  br label %45

16:                                               ; preds = %2
  call void @llvm.lifetime.start.p0(i64 8, ptr %6) #7
  %17 = call ptr @_PyInterpreterState_GET()
  store ptr %17, ptr %6, align 8, !tbaa !21
  call void @llvm.lifetime.start.p0(i64 8, ptr %7) #7
  %18 = call ptr @PyList_New(i64 noundef 0)
  store ptr %18, ptr %7, align 8, !tbaa !4
  %19 = load ptr, ptr %7, align 8, !tbaa !4
  %20 = icmp eq ptr %19, null
  br i1 %20, label %21, label %22

21:                                               ; preds = %16
  store ptr null, ptr %3, align 8
  store i32 1, ptr %8, align 4
  br label %44

22:                                               ; preds = %16
  %23 = load ptr, ptr %6, align 8, !tbaa !21
  call void @_PyEval_StopTheWorld(ptr noundef %23)
  call void @llvm.lifetime.start.p0(i64 4, ptr %9) #7
  %24 = load ptr, ptr %7, align 8, !tbaa !4
  %25 = load ptr, ptr %5, align 8, !tbaa !4
  %26 = call i32 @append_referrents(ptr noundef %24, ptr noundef %25)
  store i32 %26, ptr %9, align 4, !tbaa !9
  %27 = load ptr, ptr %6, align 8, !tbaa !21
  call void @_PyEval_StartTheWorld(ptr noundef %27)
  %28 = load i32, ptr %9, align 4, !tbaa !9
  %29 = icmp slt i32 %28, 0
  br i1 %29, label %30, label %42

30:                                               ; preds = %22
  br label %31

31:                                               ; preds = %30
  call void @llvm.lifetime.start.p0(i64 8, ptr %10) #7
  store ptr %7, ptr %10, align 8, !tbaa !11
  call void @llvm.lifetime.start.p0(i64 8, ptr %11) #7
  %32 = load ptr, ptr %10, align 8, !tbaa !11
  %33 = load ptr, ptr %32, align 8, !tbaa !4
  store ptr %33, ptr %11, align 8, !tbaa !4
  %34 = load ptr, ptr %11, align 8, !tbaa !4
  %35 = icmp ne ptr %34, null
  br i1 %35, label %36, label %39

36:                                               ; preds = %31
  %37 = load ptr, ptr %10, align 8, !tbaa !11
  store ptr null, ptr %37, align 8, !tbaa !4
  %38 = load ptr, ptr %11, align 8, !tbaa !4
  call void @Py_DECREF(ptr noundef %38)
  br label %39

39:                                               ; preds = %36, %31
  call void @llvm.lifetime.end.p0(i64 8, ptr %11) #7
  call void @llvm.lifetime.end.p0(i64 8, ptr %10) #7
  br label %40

40:                                               ; preds = %39
  br label %41

41:                                               ; preds = %40
  br label %42

42:                                               ; preds = %41, %22
  %43 = load ptr, ptr %7, align 8, !tbaa !4
  store ptr %43, ptr %3, align 8
  store i32 1, ptr %8, align 4
  call void @llvm.lifetime.end.p0(i64 4, ptr %9) #7
  br label %44

44:                                               ; preds = %42, %21
  call void @llvm.lifetime.end.p0(i64 8, ptr %7) #7
  call void @llvm.lifetime.end.p0(i64 8, ptr %6) #7
  br label %45

45:                                               ; preds = %44, %15
  %46 = load ptr, ptr %3, align 8
  ret ptr %46
}

; Function Attrs: nounwind uwtable
define internal ptr @gc_get_referents(ptr noundef %0, ptr noundef %1, i64 noundef %2) #0 {
  %4 = alloca ptr, align 8
  %5 = alloca ptr, align 8
  %6 = alloca i64, align 8
  %7 = alloca ptr, align 8
  %8 = alloca ptr, align 8
  store ptr %0, ptr %4, align 8, !tbaa !4
  store ptr %1, ptr %5, align 8, !tbaa !11
  store i64 %2, ptr %6, align 8, !tbaa !13
  call void @llvm.lifetime.start.p0(i64 8, ptr %7) #7
  store ptr null, ptr %7, align 8, !tbaa !4
  call void @llvm.lifetime.start.p0(i64 8, ptr %8) #7
  store ptr null, ptr %8, align 8, !tbaa !4
  %9 = load ptr, ptr %5, align 8, !tbaa !11
  %10 = load i64, ptr %6, align 8, !tbaa !13
  %11 = call ptr @_PyTuple_FromArray(ptr noundef %9, i64 noundef %10)
  store ptr %11, ptr %8, align 8, !tbaa !4
  %12 = load ptr, ptr %8, align 8, !tbaa !4
  %13 = icmp eq ptr %12, null
  br i1 %13, label %14, label %15

14:                                               ; preds = %3
  br label %19

15:                                               ; preds = %3
  %16 = load ptr, ptr %4, align 8, !tbaa !4
  %17 = load ptr, ptr %8, align 8, !tbaa !4
  %18 = call ptr @gc_get_referents_impl(ptr noundef %16, ptr noundef %17)
  store ptr %18, ptr %7, align 8, !tbaa !4
  br label %19

19:                                               ; preds = %15, %14
  %20 = load ptr, ptr %8, align 8, !tbaa !4
  call void @Py_XDECREF(ptr noundef %20)
  %21 = load ptr, ptr %7, align 8, !tbaa !4
  call void @llvm.lifetime.end.p0(i64 8, ptr %8) #7
  call void @llvm.lifetime.end.p0(i64 8, ptr %7) #7
  ret ptr %21
}